target datalayout = "e-m:e-p270:32:32-p271:32:32-p272:64:64-i64:64-i128:128-f80:128-n8:16:32:64-S128"
target triple = "x86_64-pc-linux-gnu"

%"struct.duckdb_brotli::BrotliDecoderStateStruct" = type { i32, i32, %"struct.duckdb_brotli::BrotliBitReader", ptr, ptr, ptr, %union.anon, i64, i32, i32, i32, i32, i32, i32, [4 x i32], i32, i32, ptr, ptr, ptr, ptr, ptr, ptr, %"struct.duckdb_brotli::HuffmanTreeGroup", %"struct.duckdb_brotli::HuffmanTreeGroup", %"struct.duckdb_brotli::HuffmanTreeGroup", ptr, ptr, i32, i32, [3 x i64], i64, [3 x i64], [6 x i64], i64, i64, i64, ptr, ptr, i64, i64, i64, [65 x i32], i32, i32, i8, ptr, ptr, ptr, i64, i32, i32, i32, i32, i32, i32, i64, ptr, ptr, ptr, ptr, [8 x i32], %union.anon.0 }
%"struct.duckdb_brotli::BrotliBitReader" = type { i64, i64, ptr, ptr, ptr }
%union.anon = type { i64 }
%"struct.duckdb_brotli::HuffmanTreeGroup" = type { ptr, ptr, i16, i16, i16 }
%union.anon.0 = type { %"struct.duckdb_brotli::BrotliMetablockBodyArena" }
%"struct.duckdb_brotli::BrotliMetablockBodyArena" = type { [544 x i8], [544 x i64] }

; Function Attrs: mustprogress nounwind uwtable
define internal noundef i64 @_ZN13duckdb_brotliL14UnwrittenBytesEPKNS_24BrotliDecoderStateStructEi(ptr noundef %0, i32 noundef %1) #0 {
  %3 = alloca ptr, align 8
  %4 = alloca i32, align 4
  %5 = alloca i64, align 8
  %6 = alloca i64, align 8
  store ptr %0, ptr %3, align 8, !tbaa !3
  store i32 %1, ptr %4, align 4, !tbaa !10
  call void @llvm.lifetime.start.p0(i64 8, ptr %5) #14
  %7 = load i32, ptr %4, align 4, !tbaa !10
  %8 = icmp ne i32 %7, 0
  br i1 %8, label %9, label %22

9:                                                ; preds = %2
  %10 = load ptr, ptr %3, align 8, !tbaa !3
  %11 = getelementptr inbounds nuw %"struct.duckdb_brotli::BrotliDecoderStateStruct", ptr %10, i32 0, i32 8
  %12 = load i32, ptr %11, align 8, !tbaa !98
  %13 = load ptr, ptr %3, align 8, !tbaa !3
  %14 = getelementptr inbounds nuw %"struct.duckdb_brotli::BrotliDecoderStateStruct", ptr %13, i32 0, i32 11
  %15 = load i32, ptr %14, align 4, !tbaa !96
  %16 = icmp sgt i32 %12, %15
  br i1 %16, label %17, label %22

17:                                               ; preds = %9
  %18 = load ptr, ptr %3, align 8, !tbaa !3
  %19 = getelementptr inbounds nuw %"struct.duckdb_brotli::BrotliDecoderStateStruct", ptr %18, i32 0, i32 11
  %20 = load i32, ptr %19, align 4, !tbaa !96
  %21 = sext i32 %20 to i64
  br label %27

22:                                               ; preds = %9, %2
  %23 = load ptr, ptr %3, align 8, !tbaa !3
  %24 = getelementptr inbounds nuw %"struct.duckdb_brotli::BrotliDecoderStateStruct", ptr %23, i32 0, i32 8
  %25 = load i32, ptr %24, align 8, !tbaa !98
  %26 = sext i32 %25 to i64
  br label %27

27:                                               ; preds = %22, %17
  %28 = phi i64 [ %21, %17 ], [ %26, %22 ]
  store i64 %28, ptr %5, align 8, !tbaa !31
  call void @llvm.lifetime.start.p0(i64 8, ptr %6) #14
  %29 = load ptr, ptr %3, align 8, !tbaa !3
  %30 = getelementptr inbounds nuw %"struct.duckdb_brotli::BrotliDecoderStateStruct", ptr %29, i32 0, i32 39
  %31 = load i64, ptr %30, align 8, !tbaa !104
  %32 = load ptr, ptr %3, align 8, !tbaa !3
  %33 = getelementptr inbounds nuw %"struct.duckdb_brotli::BrotliDecoderStateStruct", ptr %32, i32 0, i32 11
  %34 = load i32, ptr %33, align 4, !tbaa !96
  %35 = sext i32 %34 to i64
  %36 = mul i64 %31, %35
  %37 = load i64, ptr %5, align 8, !tbaa !31
  %38 = add i64 %36, %37
  store i64 %38, ptr %6, align 8, !tbaa !31
  %39 = load i64, ptr %6, align 8, !tbaa !31
  %40 = load ptr, ptr %3, align 8, !tbaa !3
  %41 = getelementptr inbounds nuw %"struct.duckdb_brotli::BrotliDecoderStateStruct", ptr %40, i32 0, i32 40
  %42 = load i64, ptr %41, align 8, !tbaa !58
  %43 = sub i64 %39, %42
  call void @llvm.lifetime.end.p0(i64 8, ptr %6) #14
  call void @llvm.lifetime.end.p0(i64 8, ptr %5) #14
  ret i64 %43
}

; Function Attrs: mustprogress uwtable
define noundef i32 @_ZN13duckdb_brotli26BrotliDecoderHasMoreOutputEPKNS_24BrotliDecoderStateStructE(ptr noundef %0) #1 {
  %2 = alloca i32, align 4
  %3 = alloca ptr, align 8
  store ptr %0, ptr %3, align 8, !tbaa !3
  %4 = load ptr, ptr %3, align 8, !tbaa !3
  %5 = getelementptr inbounds nuw %"struct.duckdb_brotli::BrotliDecoderStateStruct", ptr %4, i32 0, i32 15
  %6 = load i32, ptr %5, align 8, !tbaa !59
  %7 = icmp slt i32 %6, 0
  br i1 %7, label %8, label %9

8:                                                ; preds = %1
  store i32 0, ptr %2, align 4
  br label %23

9:                                                ; preds = %1
  %10 = load ptr, ptr %3, align 8, !tbaa !3
  %11 = getelementptr inbounds nuw %"struct.duckdb_brotli::BrotliDecoderStateStruct", ptr %10, i32 0, i32 17
  %12 = load ptr, ptr %11, align 8, !tbaa !61
  %13 = icmp ne ptr %12, null
  br i1 %13, label %14, label %18

14:                                               ; preds = %9
  %15 = load ptr, ptr %3, align 8, !tbaa !3
  %16 = call noundef i64 @_ZN13duckdb_brotliL14UnwrittenBytesEPKNS_24BrotliDecoderStateStructEi(ptr noundef %15, i32 noundef 0)
  %17 = icmp ne i64 %16, 0
  br label %18

18:                                               ; preds = %14, %9
  %19 = phi i1 [ false, %9 ], [ %17, %14 ]
  %20 = xor i1 %19, true
  %21 = xor i1 %20, true
  %22 = select i1 %21, i32 1, i32 0
  store i32 %22, ptr %2, align 4
  br label %23

23:                                               ; preds = %18, %8
  %24 = load i32, ptr %2, align 4
  ret i32 %24
}

; Function Attrs: mustprogress uwtable
define noundef i32 @_ZN13duckdb_brotli23BrotliDecoderIsFinishedEPKNS_24BrotliDecoderStateStructE(ptr noundef %0) #1 {
  %2 = alloca ptr, align 8
  store ptr %0, ptr %2, align 8, !tbaa !3
  %3 = load ptr, ptr %2, align 8, !tbaa !3
  %4 = getelementptr inbounds nuw %"struct.duckdb_brotli::BrotliDecoderStateStruct", ptr %3, i32 0, i32 0
  %5 = load i32, ptr %4, align 8, !tbaa !12
  %6 = icmp eq i32 %5, 26
  %7 = xor i1 %6, true
  %8 = xor i1 %7, true
  %9 = select i1 %8, i32 1, i32 0
  %10 = icmp ne i32 %9, 0
  br i1 %10, label %11, label %16

11:                                               ; preds = %1
  %12 = load ptr, ptr %2, align 8, !tbaa !3
  %13 = call noundef i32 @_ZN13duckdb_brotli26BrotliDecoderHasMoreOutputEPKNS_24BrotliDecoderStateStructE(ptr noundef %12)
  %14 = icmp ne i32 %13, 0
  %15 = xor i1 %14, true
  br label %16

16:                                               ; preds = %11, %1
  %17 = phi i1 [ false, %1 ], [ %15, %11 ]
  %18 = zext i1 %17 to i32
  ret i32 %18
}